target datalayout = "e-m:e-p270:32:32-p271:32:32-p272:64:64-i64:64-i128:128-f80:128-n8:16:32:64-S128"
target triple = "x86_64-pc-linux-gnu"

%struct.lzma_index_hash_s = type { i32, %struct.lzma_index_hash_info, %struct.lzma_index_hash_info, i64, i64, i64, i64, i32 }
%struct.lzma_index_hash_info = type { i64, i64, i64, i64, %struct.lzma_check_state }
%struct.lzma_check_state = type { %union.anon, %union.anon.0 }
%union.anon = type { [8 x i64] }
%union.anon.0 = type { %struct.lzma_sha256_state }
%struct.lzma_sha256_state = type { [8 x i32], i64 }

; Function Attrs: nounwind uwtable
define internal i64 @vli_ceil4(i64 noundef %0) #0 {
  %2 = alloca i64, align 8
  store i64 %0, ptr %2, align 8
  %3 = load i64, ptr %2, align 8
  %4 = add i64 %3, 3
  %5 = and i64 %4, -4
  ret i64 %5
}

; Function Attrs: nounwind uwtable
define internal i64 @index_size_unpadded(i64 noundef %0, i64 noundef %1) #0 {
  %3 = alloca i64, align 8
  %4 = alloca i64, align 8
  store i64 %0, ptr %3, align 8
  store i64 %1, ptr %4, align 8
  %5 = load i64, ptr %3, align 8
  %6 = call i32 @lzma_vli_size(i64 noundef %5) #6
  %7 = add i32 1, %6
  %8 = zext i32 %7 to i64
  %9 = load i64, ptr %4, align 8
  %10 = add i64 %8, %9
  %11 = add i64 %10, 4
  ret i64 %11
}

; Function Attrs: nounwind uwtable
define internal i64 @index_size(i64 noundef %0, i64 noundef %1) #0 {
  %3 = alloca i64, align 8
  %4 = alloca i64, align 8
  store i64 %0, ptr %3, align 8
  store i64 %1, ptr %4, align 8
  %5 = load i64, ptr %3, align 8
  %6 = load i64, ptr %4, align 8
  %7 = call i64 @index_size_unpadded(i64 noundef %5, i64 noundef %6)
  %8 = call i64 @vli_ceil4(i64 noundef %7)
  ret i64 %8
}

; Function Attrs: nounwind willreturn memory(read) uwtable
define dso_local i64 @lzma_index_hash_size(ptr noundef %0) #2 {
  %2 = alloca ptr, align 8
  store ptr %0, ptr %2, align 8
  %3 = load ptr, ptr %2, align 8
  %4 = getelementptr inbounds %struct.lzma_index_hash_s, ptr %3, i32 0, i32 1
  %5 = getelementptr inbounds %struct.lzma_index_hash_info, ptr %4, i32 0, i32 2
  %6 = load i64, ptr %5, align 8
  %7 = load ptr, ptr %2, align 8
  %8 = getelementptr inbounds %struct.lzma_index_hash_s, ptr %7, i32 0, i32 1
  %9 = getelementptr inbounds %struct.lzma_index_hash_info, ptr %8, i32 0, i32 3
  %10 = load i64, ptr %9, align 8
  %11 = call i64 @index_size(i64 noundef %6, i64 noundef %10)
  ret i64 %11
}