; Function Attrs: mustprogress nofree nounwind willreturn memory(read) uwtable
define dso_local range(i64 0, -3) i64 @lzma_index_hash_size(ptr noundef readonly captures(none) %0) local_unnamed_addr #2 {
  %2 = getelementptr inbounds nuw i8, ptr %0, i64 24
  %3 = load i64, ptr %2, align 8
  %4 = getelementptr inbounds nuw i8, ptr %0, i64 32
  %5 = load i64, ptr %4, align 8
  %6 = tail call i32 @lzma_vli_size(i64 noundef %3) #10
  %7 = add i32 %6, 1
  %8 = zext i32 %7 to i64
  %9 = add i64 %5, 7
  %10 = add i64 %9, %8
  %11 = and i64 %10, -4
  ret i64 %11
}